target datalayout = "e-m:e-p270:32:32-p271:32:32-p272:64:64-i64:64-i128:128-f80:128-n8:16:32:64-S128"
target triple = "x86_64-pc-linux-gnu"

%"class.std::__cxx11::basic_string" = type { %"struct.std::__cxx11::basic_string<char>::_Alloc_hider", i64, %union.anon }
%"struct.std::__cxx11::basic_string<char>::_Alloc_hider" = type { ptr }
%union.anon = type { i64, [8 x i8] }
%"class.std::optional" = type { %"struct.std::_Optional_base" }
%"struct.std::_Optional_base" = type { %"struct.std::_Optional_payload" }
%"struct.std::_Optional_payload" = type { %"struct.std::_Optional_payload.base", [7 x i8] }
%"struct.std::_Optional_payload.base" = type { %"struct.std::_Optional_payload_base.base" }
%"struct.std::_Optional_payload_base.base" = type <{ %"union.std::_Optional_payload_base<std::__cxx11::basic_string<char>>::_Storage", i8 }>
%"union.std::_Optional_payload_base<std::__cxx11::basic_string<char>>::_Storage" = type { %"class.std::__cxx11::basic_string" }
%"struct.Luau::MetatableType" = type { ptr, ptr, %"class.std::optional" }
%class.anon = type { ptr }

; Function Attrs: mustprogress uwtable
define internal void @_ZN4Luau12_GLOBAL__N_110TypeCloner13cloneChildrenEPNS_13MetatableTypeE(ptr noundef nonnull align 8 dereferenceable(76) %0, ptr noundef %1) #3 align 2 {
  %3 = alloca ptr, align 8
  %4 = alloca ptr, align 8
  store ptr %0, ptr %3, align 8, !tbaa !54
  store ptr %1, ptr %4, align 8, !tbaa !573
  %5 = load ptr, ptr %3, align 8
  %6 = load ptr, ptr %4, align 8, !tbaa !573
  %7 = getelementptr inbounds nuw %"struct.Luau::MetatableType", ptr %6, i32 0, i32 0
  %8 = load ptr, ptr %7, align 8, !tbaa !839
  %9 = call noundef ptr @_ZN4Luau12_GLOBAL__N_110TypeCloner12shallowCloneEPKNS_4TypeE(ptr noundef nonnull align 8 dereferenceable(76) %5, ptr noundef %8)
  %10 = load ptr, ptr %4, align 8, !tbaa !573
  %11 = getelementptr inbounds nuw %"struct.Luau::MetatableType", ptr %10, i32 0, i32 0
  store ptr %9, ptr %11, align 8, !tbaa !839
  %12 = load ptr, ptr %4, align 8, !tbaa !573
  %13 = getelementptr inbounds nuw %"struct.Luau::MetatableType", ptr %12, i32 0, i32 1
  %14 = load ptr, ptr %13, align 8, !tbaa !841
  %15 = call noundef ptr @_ZN4Luau12_GLOBAL__N_110TypeCloner12shallowCloneEPKNS_4TypeE(ptr noundef nonnull align 8 dereferenceable(76) %5, ptr noundef %14)
  %16 = load ptr, ptr %4, align 8, !tbaa !573
  %17 = getelementptr inbounds nuw %"struct.Luau::MetatableType", ptr %16, i32 0, i32 1
  store ptr %15, ptr %17, align 8, !tbaa !841
  ret void
}

; Function Attrs: inlinehint mustprogress uwtable
define internal void @_ZZN4Luau12_GLOBAL__N_110TypeCloner13cloneChildrenEPKNS_4TypeEENKUlOT_E_clIRNS_13MetatableTypeEEEDaS6_(ptr noundef nonnull align 8 dereferenceable(8) %0, ptr noundef nonnull align 8 dereferenceable(56) %1) #7 align 2 {
  %3 = alloca ptr, align 8
  %4 = alloca ptr, align 8
  store ptr %0, ptr %3, align 8, !tbaa !228
  store ptr %1, ptr %4, align 8, !tbaa !573
  %5 = load ptr, ptr %3, align 8
  %6 = getelementptr inbounds nuw %class.anon, ptr %5, i32 0, i32 0
  %7 = load ptr, ptr %6, align 8, !tbaa !791
  %8 = load ptr, ptr %4, align 8, !tbaa !573
  call void @_ZN4Luau12_GLOBAL__N_110TypeCloner13cloneChildrenEPNS_13MetatableTypeE(ptr noundef nonnull align 8 dereferenceable(76) %7, ptr noundef %8)
  ret void
}

; Function Attrs: mustprogress uwtable
define internal void @_ZN4LuauL8fnVisitVIZNS_12_GLOBAL__N_110TypeCloner13cloneChildrenEPKNS_4TypeEEUlOT_E_NS_13MetatableTypeEEEvRS6_PNSt11conditionalIXsr3stdE10is_const_vIT0_EEKvvE4typeE(ptr noundef nonnull align 8 dereferenceable(8) %0, ptr noundef %1) #3 {
  %3 = alloca ptr, align 8
  %4 = alloca ptr, align 8
  store ptr %0, ptr %3, align 8, !tbaa !228
  store ptr %1, ptr %4, align 8, !tbaa !228
  %5 = load ptr, ptr %3, align 8, !tbaa !228
  %6 = load ptr, ptr %4, align 8, !tbaa !228
  call void @_ZZN4Luau12_GLOBAL__N_110TypeCloner13cloneChildrenEPKNS_4TypeEENKUlOT_E_clIRNS_13MetatableTypeEEEDaS6_(ptr noundef nonnull align 8 dereferenceable(8) %5, ptr noundef nonnull align 8 dereferenceable(56) %6)
  ret void
}