; Function Attrs: mustprogress uwtable
define internal void @_ZN4LuauL8fnVisitVIZNS_12_GLOBAL__N_110TypeCloner13cloneChildrenEPKNS_4TypeEEUlOT_E_NS_13MetatableTypeEEEvRS6_PNSt11conditionalIXsr3stdE10is_const_vIT0_EEKvvE4typeE(ptr noundef nonnull readonly align 8 captures(none) dereferenceable(8) %0, ptr noundef captures(none) %1) #2 {
  %.val = load ptr, ptr %0, align 8, !tbaa !335
  %3 = load ptr, ptr %1, align 8, !tbaa !350
  %4 = tail call fastcc noundef ptr @_ZN4Luau12_GLOBAL__N_110TypeCloner12shallowCloneEPKNS_4TypeE(ptr noundef nonnull align 8 dereferenceable(76) %.val, ptr noundef %3)
  store ptr %4, ptr %1, align 8, !tbaa !350
  %5 = getelementptr inbounds nuw i8, ptr %1, i64 8
  %6 = load ptr, ptr %5, align 8, !tbaa !352
  %7 = tail call fastcc noundef ptr @_ZN4Luau12_GLOBAL__N_110TypeCloner12shallowCloneEPKNS_4TypeE(ptr noundef nonnull align 8 dereferenceable(76) %.val, ptr noundef %6)
  store ptr %7, ptr %5, align 8, !tbaa !352
  ret void
}